; Function Attrs: mustprogress uwtable
define noundef ptr @uprv_decNumberAbs_77(ptr noundef returned %0, ptr noundef %1, ptr noundef %2) local_unnamed_addr #3 {
  %4 = alloca %struct.decNumber, align 4
  %5 = alloca i32, align 4
  call void @llvm.lifetime.start.p0(i64 12, ptr nonnull %4) #16
  call void @llvm.lifetime.start.p0(i64 4, ptr nonnull %5) #16
  store i32 0, ptr %5, align 4, !tbaa !14
  %6 = getelementptr inbounds nuw i8, ptr %4, i64 8
  store i8 0, ptr %6, align 4, !tbaa !3
  %7 = getelementptr inbounds nuw i8, ptr %4, i64 4
  store i32 1, ptr %4, align 4, !tbaa !9
  %8 = getelementptr inbounds nuw i8, ptr %4, i64 9
  store i8 0, ptr %8, align 1, !tbaa !10
  %9 = getelementptr inbounds nuw i8, ptr %1, i64 4
  %10 = load i32, ptr %9, align 4, !tbaa !8
  store i32 %10, ptr %7, align 4, !tbaa !8
  %11 = getelementptr inbounds nuw i8, ptr %1, i64 8
  %12 = load i8, ptr %11, align 4, !tbaa !3
  %13 = and i8 %12, -128
  %14 = call fastcc noundef ptr @_ZL8decAddOpP9decNumberPKS_S2_P10decContexthPj(ptr noundef %0, ptr noundef nonnull %4, ptr noundef %1, ptr noundef %2, i8 noundef zeroext %13, ptr noundef %5)
  %15 = load i32, ptr %5, align 4, !tbaa !14
  %.not = icmp eq i32 %15, 0
  br i1 %.not, label %27, label %16

16:                                               ; preds = %3
  %17 = and i32 %15, 221
  %.not.i = icmp eq i32 %17, 0
  br i1 %.not.i, label %_ZL9decStatusP9decNumberjP10decContext.exit, label %18

18:                                               ; preds = %16
  %19 = and i32 %15, 1073741824
  %.not6.i = icmp eq i32 %19, 0
  br i1 %.not6.i, label %22, label %20

20:                                               ; preds = %18
  %21 = and i32 %15, -1073741825
  br label %_ZL9decStatusP9decNumberjP10decContext.exit

22:                                               ; preds = %18
  %23 = getelementptr inbounds nuw i8, ptr %0, i64 8
  %24 = getelementptr inbounds nuw i8, ptr %0, i64 4
  store i32 0, ptr %24, align 4, !tbaa !8
  store i32 1, ptr %0, align 4, !tbaa !9
  %25 = getelementptr inbounds nuw i8, ptr %0, i64 9
  store i8 0, ptr %25, align 1, !tbaa !10
  store i8 32, ptr %23, align 4, !tbaa !3
  br label %_ZL9decStatusP9decNumberjP10decContext.exit

_ZL9decStatusP9decNumberjP10decContext.exit:      ; preds = %16, %20, %22
  %.0.i = phi i32 [ %21, %20 ], [ %15, %22 ], [ %15, %16 ]
  %26 = call ptr @uprv_decContextSetStatus_77(ptr noundef %2, i32 noundef %.0.i)
  br label %27

27:                                               ; preds = %_ZL9decStatusP9decNumberjP10decContext.exit, %3
  call void @llvm.lifetime.end.p0(i64 4, ptr nonnull %5) #16
  call void @llvm.lifetime.end.p0(i64 12, ptr nonnull %4) #16
  ret ptr %0
}